; Function Attrs: mustprogress nofree norecurse nosync nounwind sspstrong willreturn memory(write, argmem: readwrite, inaccessiblemem: none) uwtable
define internal fastcc void @tcg_out_ext8u(ptr noundef captures(none) %0, i32 noundef %1, i32 noundef %2) unnamed_addr #21 {
  %4 = lshr i32 %1, 1
  %5 = and i32 %4, 4
  %6 = lshr i32 %2, 3
  %7 = and i32 %6, 1
  %8 = or disjoint i32 %7, %5
  %9 = icmp slt i32 %2, 4
  %10 = icmp eq i32 %8, 0
  %.not37.i.i = and i1 %9, %10
  br i1 %.not37.i.i, label %tcg_out_modrm.exit, label %11

11:                                               ; preds = %3
  %12 = trunc nuw nsw i32 %8 to i8
  %13 = or disjoint i8 %12, 64
  %14 = getelementptr inbounds nuw i8, ptr %0, i64 128
  %15 = load ptr, ptr %14, align 8
  %16 = getelementptr inbounds nuw i8, ptr %15, i64 1
  store ptr %16, ptr %14, align 8
  store i8 %13, ptr %15, align 1
  br label %tcg_out_modrm.exit

tcg_out_modrm.exit:                               ; preds = %3, %11
  %17 = getelementptr inbounds nuw i8, ptr %0, i64 128
  %18 = load ptr, ptr %17, align 8
  %19 = getelementptr inbounds nuw i8, ptr %18, i64 1
  store ptr %19, ptr %17, align 8
  store i8 15, ptr %18, align 1
  %20 = load ptr, ptr %17, align 8
  %21 = getelementptr inbounds nuw i8, ptr %20, i64 1
  store ptr %21, ptr %17, align 8
  store i8 -74, ptr %20, align 1
  %22 = shl i32 %1, 3
  %23 = and i32 %2, 7
  %24 = or disjoint i32 %23, %22
  %25 = trunc i32 %24 to i8
  %26 = or i8 %25, -64
  %27 = load ptr, ptr %17, align 8
  %28 = getelementptr inbounds nuw i8, ptr %27, i64 1
  store ptr %28, ptr %17, align 8
  store i8 %26, ptr %27, align 1
  ret void
}